target datalayout = "e-m:e-p270:32:32-p271:32:32-p272:64:64-i64:64-i128:128-f80:128-n8:16:32:64-S128"
target triple = "x86_64-pc-linux-gnu"

%struct._object = type { %union.anon, ptr }
%union.anon = type { i64 }
%struct._typeobject = type { %struct.PyVarObject, ptr, i64, i64, ptr, i64, ptr, ptr, ptr, ptr, ptr, ptr, ptr, ptr, ptr, ptr, ptr, ptr, ptr, i64, ptr, ptr, ptr, ptr, i64, ptr, ptr, ptr, ptr, ptr, ptr, ptr, ptr, ptr, i64, ptr, ptr, ptr, ptr, ptr, ptr, ptr, ptr, ptr, ptr, ptr, i32, ptr, ptr, i8, i16 }
%struct.PyVarObject = type { %struct._object, i64 }
%struct.PyFloatObject = type { %struct._object, double }

@PyFloat_Type = external global %struct._typeobject, align 8

; Function Attrs: inlinehint nounwind uwtable
define internal ptr @_Py_TYPE(ptr noundef %0) #6 {
  %2 = alloca ptr, align 8
  store ptr %0, ptr %2, align 8, !tbaa !3
  %3 = load ptr, ptr %2, align 8, !tbaa !3
  %4 = getelementptr inbounds nuw %struct._object, ptr %3, i32 0, i32 1
  %5 = load ptr, ptr %4, align 8, !tbaa !48
  ret ptr %5
}

; Function Attrs: nounwind uwtable
define internal double @math_ulp_impl(ptr noundef %0, double noundef %1) #0 {
  %3 = alloca double, align 8
  %4 = alloca ptr, align 8
  %5 = alloca double, align 8
  %6 = alloca double, align 8
  %7 = alloca double, align 8
  %8 = alloca i32, align 4
  store ptr %0, ptr %4, align 8, !tbaa !3
  store double %1, ptr %5, align 8, !tbaa !13
  %9 = load double, ptr %5, align 8, !tbaa !13
  %10 = call i1 @llvm.is.fpclass.f64(double %9, i32 3)
  br i1 %10, label %11, label %13

11:                                               ; preds = %2
  %12 = load double, ptr %5, align 8, !tbaa !13
  store double %12, ptr %3, align 8
  br label %51

13:                                               ; preds = %2
  %14 = load double, ptr %5, align 8, !tbaa !13
  %15 = call double @llvm.fabs.f64(double %14)
  store double %15, ptr %5, align 8, !tbaa !13
  %16 = load double, ptr %5, align 8, !tbaa !13
  %17 = call double @llvm.fabs.f64(double %16) #11
  %18 = fcmp oeq double %17, 0x7FF0000000000000
  %19 = bitcast double %16 to i64
  %20 = icmp slt i64 %19, 0
  %21 = select i1 %20, i32 -1, i32 1
  %22 = select i1 %18, i32 %21, i32 0
  %23 = icmp ne i32 %22, 0
  br i1 %23, label %24, label %26

24:                                               ; preds = %13
  %25 = load double, ptr %5, align 8, !tbaa !13
  store double %25, ptr %3, align 8
  br label %51

26:                                               ; preds = %13
  call void @llvm.lifetime.start.p0(i64 8, ptr %6) #10
  store double 0x7FF0000000000000, ptr %6, align 8, !tbaa !13
  call void @llvm.lifetime.start.p0(i64 8, ptr %7) #10
  %27 = load double, ptr %5, align 8, !tbaa !13
  %28 = load double, ptr %6, align 8, !tbaa !13
  %29 = call double @nextafter(double noundef %27, double noundef %28) #10, !tbaa !17
  store double %29, ptr %7, align 8, !tbaa !13
  %30 = load double, ptr %7, align 8, !tbaa !13
  %31 = call double @llvm.fabs.f64(double %30) #11
  %32 = fcmp oeq double %31, 0x7FF0000000000000
  %33 = bitcast double %30 to i64
  %34 = icmp slt i64 %33, 0
  %35 = select i1 %34, i32 -1, i32 1
  %36 = select i1 %32, i32 %35, i32 0
  %37 = icmp ne i32 %36, 0
  br i1 %37, label %38, label %46

38:                                               ; preds = %26
  %39 = load double, ptr %5, align 8, !tbaa !13
  %40 = load double, ptr %6, align 8, !tbaa !13
  %41 = fneg double %40
  %42 = call double @nextafter(double noundef %39, double noundef %41) #10, !tbaa !17
  store double %42, ptr %7, align 8, !tbaa !13
  %43 = load double, ptr %5, align 8, !tbaa !13
  %44 = load double, ptr %7, align 8, !tbaa !13
  %45 = fsub double %43, %44
  store double %45, ptr %3, align 8
  store i32 1, ptr %8, align 4
  br label %50

46:                                               ; preds = %26
  %47 = load double, ptr %7, align 8, !tbaa !13
  %48 = load double, ptr %5, align 8, !tbaa !13
  %49 = fsub double %47, %48
  store double %49, ptr %3, align 8
  store i32 1, ptr %8, align 4
  br label %50

50:                                               ; preds = %46, %38
  call void @llvm.lifetime.end.p0(i64 8, ptr %7) #10
  call void @llvm.lifetime.end.p0(i64 8, ptr %6) #10
  br label %51

51:                                               ; preds = %50, %24, %11
  %52 = load double, ptr %3, align 8
  ret double %52
}

; Function Attrs: inlinehint nounwind uwtable
define internal double @PyFloat_AS_DOUBLE(ptr noundef %0) #6 {
  %2 = alloca ptr, align 8
  store ptr %0, ptr %2, align 8, !tbaa !3
  %3 = load ptr, ptr %2, align 8, !tbaa !3
  %4 = getelementptr inbounds nuw %struct.PyFloatObject, ptr %3, i32 0, i32 1
  %5 = load double, ptr %4, align 8, !tbaa !43
  ret double %5
}

; Function Attrs: inlinehint nounwind uwtable
define internal i32 @Py_IS_TYPE(ptr noundef %0, ptr noundef %1) #6 {
  %3 = alloca ptr, align 8
  %4 = alloca ptr, align 8
  store ptr %0, ptr %3, align 8, !tbaa !3
  store ptr %1, ptr %4, align 8, !tbaa !42
  %5 = load ptr, ptr %3, align 8, !tbaa !3
  %6 = call ptr @_Py_TYPE(ptr noundef %5)
  %7 = load ptr, ptr %4, align 8, !tbaa !42
  %8 = icmp eq ptr %6, %7
  %9 = zext i1 %8 to i32
  ret i32 %9
}

; Function Attrs: nounwind uwtable
define internal ptr @math_ulp(ptr noundef %0, ptr noundef %1) #0 {
  %3 = alloca ptr, align 8
  %4 = alloca ptr, align 8
  %5 = alloca ptr, align 8
  %6 = alloca double, align 8
  %7 = alloca double, align 8
  store ptr %0, ptr %3, align 8, !tbaa !3
  store ptr %1, ptr %4, align 8, !tbaa !3
  call void @llvm.lifetime.start.p0(i64 8, ptr %5) #10
  store ptr null, ptr %5, align 8, !tbaa !3
  call void @llvm.lifetime.start.p0(i64 8, ptr %6) #10
  call void @llvm.lifetime.start.p0(i64 8, ptr %7) #10
  %8 = load ptr, ptr %4, align 8, !tbaa !3
  %9 = call i32 @Py_IS_TYPE(ptr noundef %8, ptr noundef @PyFloat_Type)
  %10 = icmp ne i32 %9, 0
  br i1 %10, label %11, label %14

11:                                               ; preds = %2
  %12 = load ptr, ptr %4, align 8, !tbaa !3
  %13 = call double @PyFloat_AS_DOUBLE(ptr noundef %12)
  store double %13, ptr %6, align 8, !tbaa !13
  br label %24

14:                                               ; preds = %2
  %15 = load ptr, ptr %4, align 8, !tbaa !3
  %16 = call double @PyFloat_AsDouble(ptr noundef %15)
  store double %16, ptr %6, align 8, !tbaa !13
  %17 = load double, ptr %6, align 8, !tbaa !13
  %18 = fcmp oeq double %17, -1.000000e+00
  br i1 %18, label %19, label %23

19:                                               ; preds = %14
  %20 = call ptr @PyErr_Occurred()
  %21 = icmp ne ptr %20, null
  br i1 %21, label %22, label %23

22:                                               ; preds = %19
  br label %37

23:                                               ; preds = %19, %14
  br label %24

24:                                               ; preds = %23, %11
  %25 = load ptr, ptr %3, align 8, !tbaa !3
  %26 = load double, ptr %6, align 8, !tbaa !13
  %27 = call double @math_ulp_impl(ptr noundef %25, double noundef %26)
  store double %27, ptr %7, align 8, !tbaa !13
  %28 = load double, ptr %7, align 8, !tbaa !13
  %29 = fcmp oeq double %28, -1.000000e+00
  br i1 %29, label %30, label %34

30:                                               ; preds = %24
  %31 = call ptr @PyErr_Occurred()
  %32 = icmp ne ptr %31, null
  br i1 %32, label %33, label %34

33:                                               ; preds = %30
  br label %37

34:                                               ; preds = %30, %24
  %35 = load double, ptr %7, align 8, !tbaa !13
  %36 = call ptr @PyFloat_FromDouble(double noundef %35)
  store ptr %36, ptr %5, align 8, !tbaa !3
  br label %37

37:                                               ; preds = %34, %33, %22
  %38 = load ptr, ptr %5, align 8, !tbaa !3
  call void @llvm.lifetime.end.p0(i64 8, ptr %7) #10
  call void @llvm.lifetime.end.p0(i64 8, ptr %6) #10
  call void @llvm.lifetime.end.p0(i64 8, ptr %5) #10
  ret ptr %38
}