; Function Attrs: nounwind uwtable
define internal ptr @math_ulp(ptr readnone captures(none) %0, ptr noundef %1) #0 {
  %3 = getelementptr i8, ptr %1, i64 8
  %.val = load ptr, ptr %3, align 8, !tbaa !16
  %.not = icmp eq ptr %.val, @PyFloat_Type
  br i1 %.not, label %4, label %6

4:                                                ; preds = %2
  %5 = getelementptr i8, ptr %1, i64 16
  %.val13 = load double, ptr %5, align 8, !tbaa !17
  br label %11

6:                                                ; preds = %2
  %7 = tail call double @PyFloat_AsDouble(ptr noundef nonnull %1) #16
  %8 = fcmp oeq double %7, -1.000000e+00
  br i1 %8, label %9, label %11

9:                                                ; preds = %6
  %10 = tail call ptr @PyErr_Occurred() #16
  %.not11 = icmp eq ptr %10, null
  br i1 %.not11, label %.thread, label %28

11:                                               ; preds = %6, %4
  %.09 = phi double [ %.val13, %4 ], [ %7, %6 ]
  %12 = fcmp uno double %.09, 0.000000e+00
  br i1 %12, label %math_ulp_impl.exit, label %.thread

.thread:                                          ; preds = %9, %11
  %.0917 = phi double [ %.09, %11 ], [ -1.000000e+00, %9 ]
  %13 = tail call double @llvm.fabs.f64(double %.0917)
  %14 = fcmp oeq double %13, 0x7FF0000000000000
  br i1 %14, label %math_ulp_impl.exit.thread, label %15

15:                                               ; preds = %.thread
  %16 = tail call double @nextafter(double noundef %13, double noundef 0x7FF0000000000000) #16, !tbaa !14
  %17 = tail call double @llvm.fabs.f64(double %16) #18
  %18 = fcmp oeq double %17, 0x7FF0000000000000
  br i1 %18, label %19, label %22

19:                                               ; preds = %15
  %20 = tail call double @nextafter(double noundef %13, double noundef 0xFFF0000000000000) #16, !tbaa !14
  %21 = fsub double %13, %20
  br label %math_ulp_impl.exit

22:                                               ; preds = %15
  %23 = fsub double %16, %13
  br label %math_ulp_impl.exit

math_ulp_impl.exit:                               ; preds = %11, %19, %22
  %.0.i = phi double [ %.09, %11 ], [ %21, %19 ], [ %23, %22 ]
  %24 = fcmp oeq double %.0.i, -1.000000e+00
  br i1 %24, label %25, label %math_ulp_impl.exit.thread

25:                                               ; preds = %math_ulp_impl.exit
  %26 = tail call ptr @PyErr_Occurred() #16
  %.not12 = icmp eq ptr %26, null
  br i1 %.not12, label %math_ulp_impl.exit.thread, label %28

math_ulp_impl.exit.thread:                        ; preds = %.thread, %25, %math_ulp_impl.exit
  %.0.i15 = phi double [ -1.000000e+00, %25 ], [ %.0.i, %math_ulp_impl.exit ], [ 0x7FF0000000000000, %.thread ]
  %27 = tail call ptr @PyFloat_FromDouble(double noundef %.0.i15) #16
  br label %28

28:                                               ; preds = %25, %9, %math_ulp_impl.exit.thread
  %.0 = phi ptr [ null, %25 ], [ %27, %math_ulp_impl.exit.thread ], [ null, %9 ]
  ret ptr %.0
}